; Function Attrs: nounwind uwtable
define internal range(i32 -5, 1) i32 @audio_write_header(ptr noundef %0) #0 {
  %2 = getelementptr inbounds nuw i8, ptr %0, i64 24
  %3 = load ptr, ptr %2, align 8, !tbaa !4
  %4 = getelementptr inbounds nuw i8, ptr %0, i64 48
  %5 = load ptr, ptr %4, align 8, !tbaa !24
  %6 = load ptr, ptr %5, align 8, !tbaa !25
  %7 = getelementptr inbounds nuw i8, ptr %6, i64 16
  %8 = load ptr, ptr %7, align 8, !tbaa !27
  %9 = getelementptr inbounds nuw i8, ptr %8, i64 152
  %10 = load i32, ptr %9, align 8, !tbaa !34
  %11 = getelementptr inbounds nuw i8, ptr %3, i64 12
  store i32 %10, ptr %11, align 4, !tbaa !37
  %12 = getelementptr inbounds nuw i8, ptr %8, i64 132
  %13 = load i32, ptr %12, align 4, !tbaa !39
  %14 = getelementptr inbounds nuw i8, ptr %3, i64 20
  store i32 %13, ptr %14, align 4, !tbaa !40
  %15 = getelementptr inbounds nuw i8, ptr %0, i64 88
  %16 = load ptr, ptr %15, align 8, !tbaa !41
  %17 = tail call i32 @ff_oss_audio_open(ptr noundef %0, i32 noundef 1, ptr noundef %16) #7
  %18 = icmp slt i32 %17, 0
  %. = select i1 %18, i32 -5, i32 0
  ret i32 %.
}